target datalayout = "e-m:e-p270:32:32-p271:32:32-p272:64:64-i64:64-i128:128-f80:128-n8:16:32:64-S128"
target triple = "x86_64-pc-linux-gnu"

%struct.pmix_object_t = type { %union.pthread_mutex_t, ptr, i32, %struct.pmix_tma }
%union.pthread_mutex_t = type { %struct.__pthread_mutex_s }
%struct.__pthread_mutex_s = type { i32, i32, i32, i32, i32, i16, i16, %struct.__pthread_internal_list }
%struct.__pthread_internal_list = type { ptr, ptr }
%struct.pmix_tma = type { ptr, ptr, ptr, ptr, ptr, ptr, ptr, ptr }
%struct.pmix_proc = type { [256 x i8], i32 }
%struct.timeval = type { i64, i64 }
%struct.pmix_iof_flags_t = type { i8, i8, i8, i8, i8, i8, i8, ptr, ptr, i8, i8, i8, i8, i8, i8 }
%struct.pmix_class_t = type { ptr, ptr, ptr, ptr, i32, i32, ptr, ptr, i64 }
%struct.event = type { %struct.event_callback, %union.anon.0, i32, ptr, %union.anon.2, i16, i16, %struct.timeval }
%struct.event_callback = type { %struct.anon, i16, i8, i8, %union.anon, ptr }
%struct.anon = type { ptr, ptr }
%union.anon = type { ptr }
%union.anon.0 = type { %struct.anon.1 }
%struct.anon.1 = type { ptr, ptr }
%union.anon.2 = type { %struct.anon.3 }
%struct.anon.3 = type { %struct.anon.4, %struct.timeval }
%struct.anon.4 = type { ptr, ptr }
%struct.pmix_lock_t = type { i32, %struct.pmix_mutex_t, %union.pthread_cond_t, i8 }
%struct.pmix_mutex_t = type { %struct.pmix_object_t, %union.pthread_mutex_t }
%union.pthread_cond_t = type { %struct.__pthread_cond_s }
%struct.__pthread_cond_s = type { %union.__atomic_wide_counter, %union.__atomic_wide_counter, [2 x i32], [2 x i32], i32, i32, [2 x i32] }
%union.__atomic_wide_counter = type { i64 }
%struct.pmix_setup_caddy_t = type { %struct.pmix_object_t, %struct.event, %struct.pmix_lock_t, ptr, ptr, i32, ptr, i64, %struct.pmix_proc, ptr, i64, i32, i32, ptr, i32, ptr, i64, ptr, i64, i8, ptr, ptr, i64, i16, %struct.pmix_iof_flags_t, ptr, i64, i64, i32, ptr, ptr, ptr, ptr, ptr, ptr }

@pmix_class_init_epoch = external global i32, align 4
@pmix_mutex_t_class = external global %struct.pmix_class_t, align 8

; Function Attrs: inlinehint nounwind uwtable
define internal void @pmix_obj_run_constructors(ptr noundef %0) #4 {
  %2 = alloca ptr, align 8
  %3 = alloca ptr, align 8
  store ptr %0, ptr %2, align 8, !tbaa !89
  call void @llvm.lifetime.start.p0(i64 8, ptr %3) #14
  %4 = load ptr, ptr %2, align 8, !tbaa !89
  %5 = getelementptr inbounds nuw %struct.pmix_object_t, ptr %4, i32 0, i32 1
  %6 = load ptr, ptr %5, align 8, !tbaa !82
  %7 = getelementptr inbounds nuw %struct.pmix_class_t, ptr %6, i32 0, i32 6
  %8 = load ptr, ptr %7, align 8, !tbaa !142
  store ptr %8, ptr %3, align 8, !tbaa !8
  br label %9

9:                                                ; preds = %13, %1
  %10 = load ptr, ptr %3, align 8, !tbaa !8
  %11 = load ptr, ptr %10, align 8, !tbaa !8
  %12 = icmp ne ptr null, %11
  br i1 %12, label %13, label %19

13:                                               ; preds = %9
  %14 = load ptr, ptr %3, align 8, !tbaa !8
  %15 = load ptr, ptr %14, align 8, !tbaa !8
  %16 = load ptr, ptr %2, align 8, !tbaa !89
  call void %15(ptr noundef %16)
  %17 = load ptr, ptr %3, align 8, !tbaa !8
  %18 = getelementptr inbounds nuw ptr, ptr %17, i32 1
  store ptr %18, ptr %3, align 8, !tbaa !8
  br label %9, !llvm.loop !143

19:                                               ; preds = %9
  call void @llvm.lifetime.end.p0(i64 8, ptr %3) #14
  ret void
}

; Function Attrs: inlinehint nounwind uwtable
define internal void @pmix_obj_construct_tma(ptr noundef %0, ptr noundef %1) #4 {
  %3 = alloca ptr, align 8
  %4 = alloca ptr, align 8
  store ptr %0, ptr %3, align 8, !tbaa !89
  store ptr %1, ptr %4, align 8, !tbaa !132
  %5 = load ptr, ptr %4, align 8, !tbaa !132
  %6 = icmp eq ptr null, %5
  br i1 %6, label %7, label %32

7:                                                ; preds = %2
  %8 = load ptr, ptr %3, align 8, !tbaa !89
  %9 = getelementptr inbounds nuw %struct.pmix_object_t, ptr %8, i32 0, i32 3
  %10 = getelementptr inbounds nuw %struct.pmix_tma, ptr %9, i32 0, i32 0
  store ptr null, ptr %10, align 8, !tbaa !134
  %11 = load ptr, ptr %3, align 8, !tbaa !89
  %12 = getelementptr inbounds nuw %struct.pmix_object_t, ptr %11, i32 0, i32 3
  %13 = getelementptr inbounds nuw %struct.pmix_tma, ptr %12, i32 0, i32 1
  store ptr null, ptr %13, align 8, !tbaa !135
  %14 = load ptr, ptr %3, align 8, !tbaa !89
  %15 = getelementptr inbounds nuw %struct.pmix_object_t, ptr %14, i32 0, i32 3
  %16 = getelementptr inbounds nuw %struct.pmix_tma, ptr %15, i32 0, i32 2
  store ptr null, ptr %16, align 8, !tbaa !136
  %17 = load ptr, ptr %3, align 8, !tbaa !89
  %18 = getelementptr inbounds nuw %struct.pmix_object_t, ptr %17, i32 0, i32 3
  %19 = getelementptr inbounds nuw %struct.pmix_tma, ptr %18, i32 0, i32 3
  store ptr null, ptr %19, align 8, !tbaa !137
  %20 = load ptr, ptr %3, align 8, !tbaa !89
  %21 = getelementptr inbounds nuw %struct.pmix_object_t, ptr %20, i32 0, i32 3
  %22 = getelementptr inbounds nuw %struct.pmix_tma, ptr %21, i32 0, i32 4
  store ptr null, ptr %22, align 8, !tbaa !138
  %23 = load ptr, ptr %3, align 8, !tbaa !89
  %24 = getelementptr inbounds nuw %struct.pmix_object_t, ptr %23, i32 0, i32 3
  %25 = getelementptr inbounds nuw %struct.pmix_tma, ptr %24, i32 0, i32 5
  store ptr null, ptr %25, align 8, !tbaa !91
  %26 = load ptr, ptr %3, align 8, !tbaa !89
  %27 = getelementptr inbounds nuw %struct.pmix_object_t, ptr %26, i32 0, i32 3
  %28 = getelementptr inbounds nuw %struct.pmix_tma, ptr %27, i32 0, i32 6
  store ptr null, ptr %28, align 8, !tbaa !139
  %29 = load ptr, ptr %3, align 8, !tbaa !89
  %30 = getelementptr inbounds nuw %struct.pmix_object_t, ptr %29, i32 0, i32 3
  %31 = getelementptr inbounds nuw %struct.pmix_tma, ptr %30, i32 0, i32 7
  store ptr null, ptr %31, align 8, !tbaa !140
  br label %36

32:                                               ; preds = %2
  %33 = load ptr, ptr %3, align 8, !tbaa !89
  %34 = getelementptr inbounds nuw %struct.pmix_object_t, ptr %33, i32 0, i32 3
  %35 = load ptr, ptr %4, align 8, !tbaa !132
  call void @llvm.memcpy.p0.p0.i64(ptr align 8 %34, ptr align 8 %35, i64 64, i1 false), !tbaa.struct !141
  br label %36

36:                                               ; preds = %32, %7
  ret void
}

; Function Attrs: nounwind uwtable
define internal void @scadcon(ptr noundef %0) #0 {
  %2 = alloca ptr, align 8
  store ptr %0, ptr %2, align 8, !tbaa !8
  %3 = load ptr, ptr %2, align 8, !tbaa !8
  %4 = getelementptr inbounds nuw %struct.pmix_setup_caddy_t, ptr %3, i32 0, i32 3
  store ptr null, ptr %4, align 8, !tbaa !263
  %5 = load ptr, ptr %2, align 8, !tbaa !8
  %6 = getelementptr inbounds nuw %struct.pmix_setup_caddy_t, ptr %5, i32 0, i32 8
  call void @llvm.memset.p0.i64(ptr align 8 %6, i8 0, i64 260, i1 false)
  br label %7

7:                                                ; preds = %1
  br label %8

8:                                                ; preds = %7
  br label %9

9:                                                ; preds = %8
  br label %10

10:                                               ; preds = %9
  %11 = load i32, ptr @pmix_class_init_epoch, align 4, !tbaa !28
  %12 = load i32, ptr getelementptr inbounds nuw (%struct.pmix_class_t, ptr @pmix_mutex_t_class, i32 0, i32 4), align 8, !tbaa !80
  %13 = icmp ne i32 %11, %12
  br i1 %13, label %14, label %15

14:                                               ; preds = %10
  call void @pmix_class_initialize(ptr noundef @pmix_mutex_t_class)
  br label %15

15:                                               ; preds = %14, %10
  %16 = load ptr, ptr %2, align 8, !tbaa !8
  %17 = getelementptr inbounds nuw %struct.pmix_setup_caddy_t, ptr %16, i32 0, i32 2
  %18 = getelementptr inbounds nuw %struct.pmix_lock_t, ptr %17, i32 0, i32 1
  %19 = getelementptr inbounds nuw %struct.pmix_object_t, ptr %18, i32 0, i32 1
  store ptr @pmix_mutex_t_class, ptr %19, align 8, !tbaa !82
  %20 = load ptr, ptr %2, align 8, !tbaa !8
  %21 = getelementptr inbounds nuw %struct.pmix_setup_caddy_t, ptr %20, i32 0, i32 2
  %22 = getelementptr inbounds nuw %struct.pmix_lock_t, ptr %21, i32 0, i32 1
  %23 = getelementptr inbounds nuw %struct.pmix_object_t, ptr %22, i32 0, i32 2
  store i32 1, ptr %23, align 8, !tbaa !83
  %24 = load ptr, ptr %2, align 8, !tbaa !8
  %25 = getelementptr inbounds nuw %struct.pmix_setup_caddy_t, ptr %24, i32 0, i32 2
  %26 = getelementptr inbounds nuw %struct.pmix_lock_t, ptr %25, i32 0, i32 1
  call void @pmix_obj_construct_tma(ptr noundef %26, ptr noundef null)
  %27 = load ptr, ptr %2, align 8, !tbaa !8
  %28 = getelementptr inbounds nuw %struct.pmix_setup_caddy_t, ptr %27, i32 0, i32 2
  %29 = getelementptr inbounds nuw %struct.pmix_lock_t, ptr %28, i32 0, i32 1
  call void @pmix_obj_run_constructors(ptr noundef %29)
  br label %30

30:                                               ; preds = %15
  br label %31

31:                                               ; preds = %30
  br label %32

32:                                               ; preds = %31
  %33 = load ptr, ptr %2, align 8, !tbaa !8
  %34 = getelementptr inbounds nuw %struct.pmix_setup_caddy_t, ptr %33, i32 0, i32 2
  %35 = getelementptr inbounds nuw %struct.pmix_lock_t, ptr %34, i32 0, i32 2
  %36 = call i32 @pthread_cond_init(ptr noundef %35, ptr noundef null) #14
  %37 = load ptr, ptr %2, align 8, !tbaa !8
  %38 = getelementptr inbounds nuw %struct.pmix_setup_caddy_t, ptr %37, i32 0, i32 2
  %39 = getelementptr inbounds nuw %struct.pmix_lock_t, ptr %38, i32 0, i32 3
  store volatile i8 1, ptr %39, align 8, !tbaa !449
  br label %40

40:                                               ; preds = %32
  %41 = load ptr, ptr %2, align 8, !tbaa !8
  %42 = getelementptr inbounds nuw %struct.pmix_setup_caddy_t, ptr %41, i32 0, i32 4
  store ptr null, ptr %42, align 8, !tbaa !436
  %43 = load ptr, ptr %2, align 8, !tbaa !8
  %44 = getelementptr inbounds nuw %struct.pmix_setup_caddy_t, ptr %43, i32 0, i32 6
  store ptr null, ptr %44, align 8, !tbaa !235
  %45 = load ptr, ptr %2, align 8, !tbaa !8
  %46 = getelementptr inbounds nuw %struct.pmix_setup_caddy_t, ptr %45, i32 0, i32 7
  store i64 0, ptr %46, align 8, !tbaa !298
  %47 = load ptr, ptr %2, align 8, !tbaa !8
  %48 = getelementptr inbounds nuw %struct.pmix_setup_caddy_t, ptr %47, i32 0, i32 9
  store ptr null, ptr %48, align 8, !tbaa !299
  %49 = load ptr, ptr %2, align 8, !tbaa !8
  %50 = getelementptr inbounds nuw %struct.pmix_setup_caddy_t, ptr %49, i32 0, i32 10
  store i64 0, ptr %50, align 8, !tbaa !300
  %51 = load ptr, ptr %2, align 8, !tbaa !8
  %52 = getelementptr inbounds nuw %struct.pmix_setup_caddy_t, ptr %51, i32 0, i32 21
  store ptr null, ptr %52, align 8, !tbaa !273
  %53 = load ptr, ptr %2, align 8, !tbaa !8
  %54 = getelementptr inbounds nuw %struct.pmix_setup_caddy_t, ptr %53, i32 0, i32 22
  store i64 0, ptr %54, align 8, !tbaa !272
  %55 = load ptr, ptr %2, align 8, !tbaa !8
  %56 = getelementptr inbounds nuw %struct.pmix_setup_caddy_t, ptr %55, i32 0, i32 13
  store ptr null, ptr %56, align 8, !tbaa !450
  %57 = load ptr, ptr %2, align 8, !tbaa !8
  %58 = getelementptr inbounds nuw %struct.pmix_setup_caddy_t, ptr %57, i32 0, i32 14
  store i32 0, ptr %58, align 8, !tbaa !451
  %59 = load ptr, ptr %2, align 8, !tbaa !8
  %60 = getelementptr inbounds nuw %struct.pmix_setup_caddy_t, ptr %59, i32 0, i32 15
  store ptr null, ptr %60, align 8, !tbaa !233
  %61 = load ptr, ptr %2, align 8, !tbaa !8
  %62 = getelementptr inbounds nuw %struct.pmix_setup_caddy_t, ptr %61, i32 0, i32 16
  store i64 0, ptr %62, align 8, !tbaa !232
  %63 = load ptr, ptr %2, align 8, !tbaa !8
  %64 = getelementptr inbounds nuw %struct.pmix_setup_caddy_t, ptr %63, i32 0, i32 17
  store ptr null, ptr %64, align 8, !tbaa !435
  %65 = load ptr, ptr %2, align 8, !tbaa !8
  %66 = getelementptr inbounds nuw %struct.pmix_setup_caddy_t, ptr %65, i32 0, i32 18
  store i64 0, ptr %66, align 8, !tbaa !434
  %67 = load ptr, ptr %2, align 8, !tbaa !8
  %68 = getelementptr inbounds nuw %struct.pmix_setup_caddy_t, ptr %67, i32 0, i32 19
  store i8 0, ptr %68, align 8, !tbaa !274
  %69 = load ptr, ptr %2, align 8, !tbaa !8
  %70 = getelementptr inbounds nuw %struct.pmix_setup_caddy_t, ptr %69, i32 0, i32 20
  store ptr null, ptr %70, align 8, !tbaa !234
  %71 = load ptr, ptr %2, align 8, !tbaa !8
  %72 = getelementptr inbounds nuw %struct.pmix_setup_caddy_t, ptr %71, i32 0, i32 23
  store i16 0, ptr %72, align 8, !tbaa !264
  %73 = load ptr, ptr %2, align 8, !tbaa !8
  %74 = getelementptr inbounds nuw %struct.pmix_setup_caddy_t, ptr %73, i32 0, i32 24
  call void @llvm.memset.p0.i64(ptr align 8 %74, i8 0, i64 32, i1 false)
  %75 = load ptr, ptr %2, align 8, !tbaa !8
  %76 = getelementptr inbounds nuw %struct.pmix_setup_caddy_t, ptr %75, i32 0, i32 25
  store ptr null, ptr %76, align 8, !tbaa !411
  %77 = load ptr, ptr %2, align 8, !tbaa !8
  %78 = getelementptr inbounds nuw %struct.pmix_setup_caddy_t, ptr %77, i32 0, i32 26
  store i64 0, ptr %78, align 8, !tbaa !452
  %79 = load ptr, ptr %2, align 8, !tbaa !8
  %80 = getelementptr inbounds nuw %struct.pmix_setup_caddy_t, ptr %79, i32 0, i32 30
  store ptr null, ptr %80, align 8, !tbaa !129
  %81 = load ptr, ptr %2, align 8, !tbaa !8
  %82 = getelementptr inbounds nuw %struct.pmix_setup_caddy_t, ptr %81, i32 0, i32 29
  store ptr null, ptr %82, align 8, !tbaa !231
  %83 = load ptr, ptr %2, align 8, !tbaa !8
  %84 = getelementptr inbounds nuw %struct.pmix_setup_caddy_t, ptr %83, i32 0, i32 31
  store ptr null, ptr %84, align 8, !tbaa !453
  %85 = load ptr, ptr %2, align 8, !tbaa !8
  %86 = getelementptr inbounds nuw %struct.pmix_setup_caddy_t, ptr %85, i32 0, i32 32
  store ptr null, ptr %86, align 8, !tbaa !237
  %87 = load ptr, ptr %2, align 8, !tbaa !8
  %88 = getelementptr inbounds nuw %struct.pmix_setup_caddy_t, ptr %87, i32 0, i32 33
  store ptr null, ptr %88, align 8, !tbaa !265
  %89 = load ptr, ptr %2, align 8, !tbaa !8
  %90 = getelementptr inbounds nuw %struct.pmix_setup_caddy_t, ptr %89, i32 0, i32 34
  store ptr null, ptr %90, align 8, !tbaa !130
  ret void
}