; Function Attrs: nounwind uwtable
define internal void @scadcon(ptr noundef initializes((296, 308), (312, 376), (472, 480), (512, 772)) %0) #0 {
  %2 = getelementptr inbounds nuw i8, ptr %0, i64 472
  store ptr null, ptr %2, align 8, !tbaa !214
  %3 = getelementptr inbounds nuw i8, ptr %0, i64 512
  tail call void @llvm.memset.p0.i64(ptr noundef nonnull align 8 dereferenceable(260) %3, i8 0, i64 260, i1 false)
  %4 = load i32, ptr @pmix_class_init_epoch, align 4, !tbaa !23
  %5 = load i32, ptr getelementptr inbounds nuw (i8, ptr @pmix_mutex_t_class, i64 32), align 8, !tbaa !75
  %.not = icmp eq i32 %4, %5
  br i1 %.not, label %7, label %6

6:                                                ; preds = %1
  tail call void @pmix_class_initialize(ptr noundef nonnull @pmix_mutex_t_class) #19
  br label %7

7:                                                ; preds = %6, %1
  %8 = getelementptr inbounds nuw i8, ptr %0, i64 256
  %9 = getelementptr inbounds nuw i8, ptr %0, i64 296
  store ptr @pmix_mutex_t_class, ptr %9, align 8, !tbaa !77
  %10 = getelementptr inbounds nuw i8, ptr %0, i64 304
  store i32 1, ptr %10, align 8, !tbaa !78
  %11 = getelementptr inbounds nuw i8, ptr %0, i64 312
  tail call void @llvm.memset.p0.i64(ptr noundef nonnull align 8 dereferenceable(64) %11, i8 0, i64 64, i1 false)
  %12 = load ptr, ptr getelementptr inbounds nuw (i8, ptr @pmix_mutex_t_class, i64 40), align 8, !tbaa !79
  %13 = load ptr, ptr %12, align 8, !tbaa !80
  %.not6.i = icmp eq ptr %13, null
  br i1 %.not6.i, label %pmix_obj_run_constructors.exit, label %.lr.ph.i

.lr.ph.i:                                         ; preds = %7, %.lr.ph.i
  %14 = phi ptr [ %16, %.lr.ph.i ], [ %13, %7 ]
  %.07.i = phi ptr [ %15, %.lr.ph.i ], [ %12, %7 ]
  tail call void %14(ptr noundef nonnull %8) #19
  %15 = getelementptr inbounds nuw i8, ptr %.07.i, i64 8
  %16 = load ptr, ptr %15, align 8, !tbaa !80
  %.not.i = icmp eq ptr %16, null
  br i1 %.not.i, label %pmix_obj_run_constructors.exit, label %.lr.ph.i, !llvm.loop !81

pmix_obj_run_constructors.exit:                   ; preds = %.lr.ph.i, %7
  %17 = getelementptr inbounds nuw i8, ptr %0, i64 416
  %18 = tail call i32 @pthread_cond_init(ptr noundef nonnull %17, ptr noundef null) #19
  %19 = getelementptr inbounds nuw i8, ptr %0, i64 464
  store volatile i8 1, ptr %19, align 8, !tbaa !397
  %20 = getelementptr inbounds nuw i8, ptr %0, i64 480
  store ptr null, ptr %20, align 8, !tbaa !387
  %21 = getelementptr inbounds nuw i8, ptr %0, i64 496
  %22 = getelementptr inbounds nuw i8, ptr %0, i64 776
  %23 = getelementptr inbounds nuw i8, ptr %0, i64 800
  store ptr null, ptr %23, align 8, !tbaa !398
  %24 = getelementptr inbounds nuw i8, ptr %0, i64 808
  store i32 0, ptr %24, align 8, !tbaa !399
  %25 = getelementptr inbounds nuw i8, ptr %0, i64 816
  %26 = getelementptr inbounds nuw i8, ptr %0, i64 856
  %27 = getelementptr inbounds nuw i8, ptr %0, i64 888
  %28 = getelementptr inbounds nuw i8, ptr %0, i64 952
  tail call void @llvm.memset.p0.i64(ptr noundef nonnull align 8 dereferenceable(16) %21, i8 0, i64 16, i1 false)
  tail call void @llvm.memset.p0.i64(ptr noundef nonnull align 8 dereferenceable(16) %22, i8 0, i64 16, i1 false)
  tail call void @llvm.memset.p0.i64(ptr noundef nonnull align 8 dereferenceable(33) %25, i8 0, i64 33, i1 false)
  tail call void @llvm.memset.p0.i64(ptr noundef nonnull align 8 dereferenceable(26) %26, i8 0, i64 26, i1 false)
  tail call void @llvm.memset.p0.i64(ptr noundef nonnull align 8 dereferenceable(48) %27, i8 0, i64 48, i1 false)
  tail call void @llvm.memset.p0.i64(ptr noundef nonnull align 8 dereferenceable(48) %28, i8 0, i64 48, i1 false)
  ret void
}